target datalayout = "e-m:e-p270:32:32-p271:32:32-p272:64:64-i64:64-i128:128-f80:128-n8:16:32:64-S128"
target triple = "x86_64-pc-linux-gnu"

%struct.TValue = type { %union.Value, i8 }
%union.Value = type { ptr }
%struct.Table = type { ptr, i8, i8, i8, i8, i32, ptr, ptr, ptr, ptr }
%struct.Udata = type { ptr, i8, i8, i16, i64, ptr, ptr, [1 x %union.UValue] }
%union.UValue = type { %struct.TValue }
%struct.TString = type { ptr, i8, i8, i8, i8, i32, %union.anon.3, ptr, ptr, ptr }
%union.anon.3 = type { i64 }

@luaT_typenames_ = hidden constant [12 x ptr] [ptr @.str, ptr @.str.1, ptr @.str.2, ptr @udatatypename, ptr @.str.3, ptr @.str.4, ptr @.str.5, ptr @.str.6, ptr @udatatypename, ptr @.str.7, ptr @.str.8, ptr @.str.9], align 16
@.str.35 = private unnamed_addr constant [7 x i8] c"__name\00", align 1

; Function Attrs: nounwind uwtable
define hidden ptr @luaT_objtypename(ptr noundef %0, ptr noundef %1) #0 {
  %3 = alloca ptr, align 8
  %4 = alloca ptr, align 8
  %5 = alloca ptr, align 8
  %6 = alloca ptr, align 8
  %7 = alloca ptr, align 8
  %8 = alloca i32, align 4
  store ptr %0, ptr %4, align 8, !tbaa !4
  store ptr %1, ptr %5, align 8, !tbaa !28
  call void @llvm.lifetime.start.p0(i64 8, ptr %6) #6
  %9 = load ptr, ptr %5, align 8, !tbaa !28
  %10 = getelementptr inbounds nuw %struct.TValue, ptr %9, i32 0, i32 1
  %11 = load i8, ptr %10, align 8, !tbaa !30
  %12 = zext i8 %11 to i32
  %13 = icmp eq i32 %12, 69
  br i1 %13, label %14, label %21

14:                                               ; preds = %2
  %15 = load ptr, ptr %5, align 8, !tbaa !28
  %16 = getelementptr inbounds nuw %struct.TValue, ptr %15, i32 0, i32 0
  %17 = load ptr, ptr %16, align 8, !tbaa !36
  %18 = getelementptr inbounds nuw %struct.Table, ptr %17, i32 0, i32 8
  %19 = load ptr, ptr %18, align 8, !tbaa !37
  store ptr %19, ptr %6, align 8, !tbaa !26
  %20 = icmp ne ptr %19, null
  br i1 %20, label %34, label %21

21:                                               ; preds = %14, %2
  %22 = load ptr, ptr %5, align 8, !tbaa !28
  %23 = getelementptr inbounds nuw %struct.TValue, ptr %22, i32 0, i32 1
  %24 = load i8, ptr %23, align 8, !tbaa !30
  %25 = zext i8 %24 to i32
  %26 = icmp eq i32 %25, 71
  br i1 %26, label %27, label %70

27:                                               ; preds = %21
  %28 = load ptr, ptr %5, align 8, !tbaa !28
  %29 = getelementptr inbounds nuw %struct.TValue, ptr %28, i32 0, i32 0
  %30 = load ptr, ptr %29, align 8, !tbaa !36
  %31 = getelementptr inbounds nuw %struct.Udata, ptr %30, i32 0, i32 5
  %32 = load ptr, ptr %31, align 8, !tbaa !38
  store ptr %32, ptr %6, align 8, !tbaa !26
  %33 = icmp ne ptr %32, null
  br i1 %33, label %34, label %70

34:                                               ; preds = %27, %14
  call void @llvm.lifetime.start.p0(i64 8, ptr %7) #6
  %35 = load ptr, ptr %6, align 8, !tbaa !26
  %36 = load ptr, ptr %4, align 8, !tbaa !4
  %37 = call ptr @luaS_new(ptr noundef %36, ptr noundef @.str.35)
  %38 = call ptr @luaH_Hgetshortstr(ptr noundef %35, ptr noundef %37)
  store ptr %38, ptr %7, align 8, !tbaa !28
  %39 = load ptr, ptr %7, align 8, !tbaa !28
  %40 = getelementptr inbounds nuw %struct.TValue, ptr %39, i32 0, i32 1
  %41 = load i8, ptr %40, align 8, !tbaa !30
  %42 = zext i8 %41 to i32
  %43 = and i32 %42, 15
  %44 = icmp eq i32 %43, 4
  br i1 %44, label %45, label %66

45:                                               ; preds = %34
  %46 = load ptr, ptr %7, align 8, !tbaa !28
  %47 = getelementptr inbounds nuw %struct.TValue, ptr %46, i32 0, i32 0
  %48 = load ptr, ptr %47, align 8, !tbaa !36
  %49 = getelementptr inbounds nuw %struct.TString, ptr %48, i32 0, i32 4
  %50 = load i8, ptr %49, align 1, !tbaa !40
  %51 = sext i8 %50 to i32
  %52 = icmp sge i32 %51, 0
  br i1 %52, label %53, label %58

53:                                               ; preds = %45
  %54 = load ptr, ptr %7, align 8, !tbaa !28
  %55 = getelementptr inbounds nuw %struct.TValue, ptr %54, i32 0, i32 0
  %56 = load ptr, ptr %55, align 8, !tbaa !36
  %57 = getelementptr inbounds nuw %struct.TString, ptr %56, i32 0, i32 7
  br label %64

58:                                               ; preds = %45
  %59 = load ptr, ptr %7, align 8, !tbaa !28
  %60 = getelementptr inbounds nuw %struct.TValue, ptr %59, i32 0, i32 0
  %61 = load ptr, ptr %60, align 8, !tbaa !36
  %62 = getelementptr inbounds nuw %struct.TString, ptr %61, i32 0, i32 7
  %63 = load ptr, ptr %62, align 8, !tbaa !42
  br label %64

64:                                               ; preds = %58, %53
  %65 = phi ptr [ %57, %53 ], [ %63, %58 ]
  store ptr %65, ptr %3, align 8
  store i32 1, ptr %8, align 4
  br label %67

66:                                               ; preds = %34
  store i32 0, ptr %8, align 4
  br label %67

67:                                               ; preds = %66, %64
  call void @llvm.lifetime.end.p0(i64 8, ptr %7) #6
  %68 = load i32, ptr %8, align 4
  switch i32 %68, label %80 [
    i32 0, label %69
  ]

69:                                               ; preds = %67
  br label %70

70:                                               ; preds = %69, %27, %21
  %71 = load ptr, ptr %5, align 8, !tbaa !28
  %72 = getelementptr inbounds nuw %struct.TValue, ptr %71, i32 0, i32 1
  %73 = load i8, ptr %72, align 8, !tbaa !30
  %74 = zext i8 %73 to i32
  %75 = and i32 %74, 15
  %76 = add nsw i32 %75, 1
  %77 = sext i32 %76 to i64
  %78 = getelementptr inbounds [12 x ptr], ptr @luaT_typenames_, i64 0, i64 %77
  %79 = load ptr, ptr %78, align 8, !tbaa !11
  store ptr %79, ptr %3, align 8
  store i32 1, ptr %8, align 4
  br label %80

80:                                               ; preds = %70, %67
  call void @llvm.lifetime.end.p0(i64 8, ptr %6) #6
  %81 = load ptr, ptr %3, align 8
  ret ptr %81
}