; Function Attrs: nounwind uwtable
define hidden ptr @luaT_objtypename(ptr noundef %0, ptr noundef readonly captures(none) %1) local_unnamed_addr #0 {
  %3 = getelementptr inbounds nuw i8, ptr %1, i64 8
  %4 = load i8, ptr %3, align 8, !tbaa !24
  switch i8 %4, label %.thread [
    i8 69, label %5
    i8 71, label %9
  ]

5:                                                ; preds = %2
  %6 = load ptr, ptr %1, align 8, !tbaa !31
  %7 = getelementptr inbounds nuw i8, ptr %6, i64 32
  %8 = load ptr, ptr %7, align 8, !tbaa !33
  %.not = icmp eq ptr %8, null
  br i1 %.not, label %.thread, label %13

9:                                                ; preds = %2
  %10 = load ptr, ptr %1, align 8, !tbaa !31
  %11 = getelementptr inbounds nuw i8, ptr %10, i64 24
  %12 = load ptr, ptr %11, align 8, !tbaa !34
  %.not16 = icmp eq ptr %12, null
  br i1 %.not16, label %.thread, label %13

13:                                               ; preds = %9, %5
  %.013 = phi ptr [ %8, %5 ], [ %12, %9 ]
  %14 = tail call ptr @luaS_new(ptr noundef %0, ptr noundef nonnull @.str.35) #5
  %15 = tail call ptr @luaH_Hgetshortstr(ptr noundef nonnull %.013, ptr noundef %14) #5
  %16 = getelementptr inbounds nuw i8, ptr %15, i64 8
  %17 = load i8, ptr %16, align 8, !tbaa !24
  %18 = and i8 %17, 15
  %.not17 = icmp eq i8 %18, 4
  br i1 %.not17, label %19, label %..thread_crit_edge

..thread_crit_edge:                               ; preds = %13
  %.pre = load i8, ptr %3, align 8, !tbaa !24
  br label %.thread

19:                                               ; preds = %13
  %20 = load ptr, ptr %15, align 8, !tbaa !31
  %21 = getelementptr inbounds nuw i8, ptr %20, i64 11
  %22 = load i8, ptr %21, align 1, !tbaa !36
  %23 = icmp sgt i8 %22, -1
  %24 = getelementptr inbounds nuw i8, ptr %20, i64 24
  br i1 %23, label %.thread18, label %25

25:                                               ; preds = %19
  %26 = load ptr, ptr %24, align 8, !tbaa !38
  br label %.thread18

.thread:                                          ; preds = %..thread_crit_edge, %2, %5, %9
  %27 = phi i8 [ %.pre, %..thread_crit_edge ], [ %4, %2 ], [ 69, %5 ], [ 71, %9 ]
  %28 = and i8 %27, 15
  %narrow = add nuw nsw i8 %28, 1
  %29 = zext nneg i8 %narrow to i64
  %30 = getelementptr inbounds nuw [12 x ptr], ptr @luaT_typenames_, i64 0, i64 %29
  %31 = load ptr, ptr %30, align 8, !tbaa !4
  br label %.thread18

.thread18:                                        ; preds = %19, %25, %.thread
  %.1 = phi ptr [ %31, %.thread ], [ %26, %25 ], [ %24, %19 ]
  ret ptr %.1
}